; Function Attrs: mustprogress nofree norecurse nosync nounwind willreturn memory(argmem: read) uwtable
define { ptr, i32 } @_ZNK10OpenSubdiv6v3_6_03Far10PatchTable23GetPatchVaryingVerticesERKNS2_11PatchHandleE(ptr nocapture noundef nonnull readonly align 8 dereferenceable(273) %0, ptr nocapture noundef nonnull readonly align 4 dereferenceable(12) %1) local_unnamed_addr #17 align 2 {
  %3 = getelementptr inbounds nuw i8, ptr %0, i64 152
  %4 = load ptr, ptr %3, align 8
  %5 = getelementptr inbounds i8, ptr %0, i64 160
  %6 = load ptr, ptr %5, align 8
  %7 = icmp eq ptr %4, %6
  br i1 %7, label %18, label %8

8:                                                ; preds = %2
  %9 = getelementptr inbounds nuw i8, ptr %0, i64 144
  %10 = load i32, ptr %9, align 8
  %switch.tableidx = add i32 %10, -1
  %11 = icmp ult i32 %switch.tableidx, 10
  br i1 %11, label %switch.lookup, label %_ZNK10OpenSubdiv6v3_6_03Far15PatchDescriptor21GetNumControlVerticesEv.exit

switch.lookup:                                    ; preds = %8
  %12 = zext nneg i32 %switch.tableidx to i64
  %switch.gep = getelementptr inbounds [10 x i32], ptr @switch.table._ZNK10OpenSubdiv6v3_6_03Far10PatchTable18GetPatchFVarValuesEiii.5, i64 0, i64 %12
  %switch.load = load i32, ptr %switch.gep, align 4
  br label %_ZNK10OpenSubdiv6v3_6_03Far15PatchDescriptor21GetNumControlVerticesEv.exit

_ZNK10OpenSubdiv6v3_6_03Far15PatchDescriptor21GetNumControlVerticesEv.exit: ; preds = %8, %switch.lookup
  %.0.i.i = phi i32 [ %switch.load, %switch.lookup ], [ -1, %8 ]
  %13 = getelementptr inbounds nuw i8, ptr %1, i64 4
  %14 = load i32, ptr %13, align 4
  %15 = mul nsw i32 %14, %.0.i.i
  %16 = sext i32 %15 to i64
  %17 = getelementptr inbounds i32, ptr %4, i64 %16
  br label %18

18:                                               ; preds = %2, %_ZNK10OpenSubdiv6v3_6_03Far15PatchDescriptor21GetNumControlVerticesEv.exit
  %.sroa.3.0 = phi i32 [ %.0.i.i, %_ZNK10OpenSubdiv6v3_6_03Far15PatchDescriptor21GetNumControlVerticesEv.exit ], [ 0, %2 ]
  %.sroa.0.0 = phi ptr [ %17, %_ZNK10OpenSubdiv6v3_6_03Far15PatchDescriptor21GetNumControlVerticesEv.exit ], [ null, %2 ]
  %.fca.0.insert = insertvalue { ptr, i32 } poison, ptr %.sroa.0.0, 0
  %.fca.1.insert = insertvalue { ptr, i32 } %.fca.0.insert, i32 %.sroa.3.0, 1
  ret { ptr, i32 } %.fca.1.insert
}